; ModuleID = '27/149.c'
source_filename = "27/149.c"
target datalayout = "e-m:e-p270:32:32-p271:32:32-p272:64:64-i64:64-f80:128-n8:16:32:64-S128"
target triple = "x86_64-pc-linux-gnu"

@.str = private unnamed_addr constant [3 x i8] c"%d\00", align 1
@.str.1 = private unnamed_addr constant [10 x i8] c"%lf%lf%lf\00", align 1
@.str.2 = private unnamed_addr constant [19 x i8] c"x1=%.5lf;x2=%.5lf\0A\00", align 1
@.str.3 = private unnamed_addr constant [13 x i8] c"x1=x2=%.5lf\0A\00", align 1
@.str.4 = private unnamed_addr constant [33 x i8] c"x1=%.5lf+%.5lfi;x2=%.5lf-%.5lfi\0A\00", align 1

; Function Attrs: noinline nounwind uwtable
define dso_local void @main() #0 {
  %1 = alloca i32, align 4
  %2 = alloca i32, align 4
  %3 = alloca [100 x double], align 16
  %4 = alloca [100 x double], align 16
  %5 = alloca [100 x double], align 16
  %6 = alloca double, align 8
  %7 = alloca double, align 8
  %8 = call i32 (i8*, ...) @__isoc99_scanf(i8* getelementptr inbounds ([3 x i8], [3 x i8]* @.str, i64 0, i64 0), i32* %1)
  store i32 0, i32* %2, align 4
  br label %9

9:                                                ; preds = %24, %0
  %10 = load i32, i32* %2, align 4
  %11 = load i32, i32* %1, align 4
  %12 = icmp slt i32 %10, %11
  br i1 %12, label %13, label %27

13:                                               ; preds = %9
  %14 = load i32, i32* %2, align 4
  %15 = sext i32 %14 to i64
  %16 = getelementptr inbounds [100 x double], [100 x double]* %3, i64 0, i64 %15
  %17 = load i32, i32* %2, align 4
  %18 = sext i32 %17 to i64
  %19 = getelementptr inbounds [100 x double], [100 x double]* %4, i64 0, i64 %18
  %20 = load i32, i32* %2, align 4
  %21 = sext i32 %20 to i64
  %22 = getelementptr inbounds [100 x double], [100 x double]* %5, i64 0, i64 %21
  %23 = call i32 (i8*, ...) @__isoc99_scanf(i8* getelementptr inbounds ([10 x i8], [10 x i8]* @.str.1, i64 0, i64 0), double* %16, double* %19, double* %22)
  br label %24

24:                                               ; preds = %13
  %25 = load i32, i32* %2, align 4
  %26 = add nsw i32 %25, 1
  store i32 %26, i32* %2, align 4
  br label %9

27:                                               ; preds = %9
  store i32 0, i32* %2, align 4
  br label %28

28:                                               ; preds = %207, %27
  %29 = load i32, i32* %2, align 4
  %30 = load i32, i32* %1, align 4
  %31 = icmp slt i32 %29, %30
  br i1 %31, label %32, label %210

32:                                               ; preds = %28
  %33 = load i32, i32* %2, align 4
  %34 = sext i32 %33 to i64
  %35 = getelementptr inbounds [100 x double], [100 x double]* %4, i64 0, i64 %34
  %36 = load double, double* %35, align 8
  %37 = load i32, i32* %2, align 4
  %38 = sext i32 %37 to i64
  %39 = getelementptr inbounds [100 x double], [100 x double]* %4, i64 0, i64 %38
  %40 = load double, double* %39, align 8
  %41 = fmul double %36, %40
  %42 = load i32, i32* %2, align 4
  %43 = sext i32 %42 to i64
  %44 = getelementptr inbounds [100 x double], [100 x double]* %3, i64 0, i64 %43
  %45 = load double, double* %44, align 8
  %46 = fmul double 4.000000e+00, %45
  %47 = load i32, i32* %2, align 4
  %48 = sext i32 %47 to i64
  %49 = getelementptr inbounds [100 x double], [100 x double]* %5, i64 0, i64 %48
  %50 = load double, double* %49, align 8
  %51 = fmul double %46, %50
  %52 = fsub double %41, %51
  %53 = fcmp ogt double %52, 0.000000e+00
  br i1 %53, label %54, label %124

54:                                               ; preds = %32
  %55 = load i32, i32* %2, align 4
  %56 = sext i32 %55 to i64
  %57 = getelementptr inbounds [100 x double], [100 x double]* %4, i64 0, i64 %56
  %58 = load double, double* %57, align 8
  %59 = fneg double %58
  %60 = load i32, i32* %2, align 4
  %61 = sext i32 %60 to i64
  %62 = getelementptr inbounds [100 x double], [100 x double]* %4, i64 0, i64 %61
  %63 = load double, double* %62, align 8
  %64 = load i32, i32* %2, align 4
  %65 = sext i32 %64 to i64
  %66 = getelementptr inbounds [100 x double], [100 x double]* %4, i64 0, i64 %65
  %67 = load double, double* %66, align 8
  %68 = fmul double %63, %67
  %69 = load i32, i32* %2, align 4
  %70 = sext i32 %69 to i64
  %71 = getelementptr inbounds [100 x double], [100 x double]* %3, i64 0, i64 %70
  %72 = load double, double* %71, align 8
  %73 = fmul double 4.000000e+00, %72
  %74 = load i32, i32* %2, align 4
  %75 = sext i32 %74 to i64
  %76 = getelementptr inbounds [100 x double], [100 x double]* %5, i64 0, i64 %75
  %77 = load double, double* %76, align 8
  %78 = fmul double %73, %77
  %79 = fsub double %68, %78
  %80 = call double @sqrt(double %79) #3
  %81 = fadd double %59, %80
  %82 = load i32, i32* %2, align 4
  %83 = sext i32 %82 to i64
  %84 = getelementptr inbounds [100 x double], [100 x double]* %3, i64 0, i64 %83
  %85 = load double, double* %84, align 8
  %86 = fmul double 2.000000e+00, %85
  %87 = fdiv double %81, %86
  store double %87, double* %6, align 8
  %88 = load i32, i32* %2, align 4
  %89 = sext i32 %88 to i64
  %90 = getelementptr inbounds [100 x double], [100 x double]* %4, i64 0, i64 %89
  %91 = load double, double* %90, align 8
  %92 = fneg double %91
  %93 = load i32, i32* %2, align 4
  %94 = sext i32 %93 to i64
  %95 = getelementptr inbounds [100 x double], [100 x double]* %4, i64 0, i64 %94
  %96 = load double, double* %95, align 8
  %97 = load i32, i32* %2, align 4
  %98 = sext i32 %97 to i64
  %99 = getelementptr inbounds [100 x double], [100 x double]* %4, i64 0, i64 %98
  %100 = load double, double* %99, align 8
  %101 = fmul double %96, %100
  %102 = load i32, i32* %2, align 4
  %103 = sext i32 %102 to i64
  %104 = getelementptr inbounds [100 x double], [100 x double]* %3, i64 0, i64 %103
  %105 = load double, double* %104, align 8
  %106 = fmul double 4.000000e+00, %105
  %107 = load i32, i32* %2, align 4
  %108 = sext i32 %107 to i64
  %109 = getelementptr inbounds [100 x double], [100 x double]* %5, i64 0, i64 %108
  %110 = load double, double* %109, align 8
  %111 = fmul double %106, %110
  %112 = fsub double %101, %111
  %113 = call double @sqrt(double %112) #3
  %114 = fsub double %92, %113
  %115 = load i32, i32* %2, align 4
  %116 = sext i32 %115 to i64
  %117 = getelementptr inbounds [100 x double], [100 x double]* %3, i64 0, i64 %116
  %118 = load double, double* %117, align 8
  %119 = fmul double 2.000000e+00, %118
  %120 = fdiv double %114, %119
  store double %120, double* %7, align 8
  %121 = load double, double* %6, align 8
  %122 = load double, double* %7, align 8
  %123 = call i32 (i8*, ...) @printf(i8* getelementptr inbounds ([19 x i8], [19 x i8]* @.str.2, i64 0, i64 0), double %121, double %122)
  br label %206

124:                                              ; preds = %32
  %125 = load i32, i32* %2, align 4
  %126 = sext i32 %125 to i64
  %127 = getelementptr inbounds [100 x double], [100 x double]* %4, i64 0, i64 %126
  %128 = load double, double* %127, align 8
  %129 = load i32, i32* %2, align 4
  %130 = sext i32 %129 to i64
  %131 = getelementptr inbounds [100 x double], [100 x double]* %4, i64 0, i64 %130
  %132 = load double, double* %131, align 8
  %133 = fmul double %128, %132
  %134 = load i32, i32* %2, align 4
  %135 = sext i32 %134 to i64
  %136 = getelementptr inbounds [100 x double], [100 x double]* %3, i64 0, i64 %135
  %137 = load double, double* %136, align 8
  %138 = fmul double 4.000000e+00, %137
  %139 = load i32, i32* %2, align 4
  %140 = sext i32 %139 to i64
  %141 = getelementptr inbounds [100 x double], [100 x double]* %5, i64 0, i64 %140
  %142 = load double, double* %141, align 8
  %143 = fmul double %138, %142
  %144 = fsub double %133, %143
  %145 = fcmp oeq double %144, 0.000000e+00
  br i1 %145, label %146, label %160

146:                                              ; preds = %124
  %147 = load i32, i32* %2, align 4
  %148 = sext i32 %147 to i64
  %149 = getelementptr inbounds [100 x double], [100 x double]* %4, i64 0, i64 %148
  %150 = load double, double* %149, align 8
  %151 = fneg double %150
  %152 = load i32, i32* %2, align 4
  %153 = sext i32 %152 to i64
  %154 = getelementptr inbounds [100 x double], [100 x double]* %3, i64 0, i64 %153
  %155 = load double, double* %154, align 8
  %156 = fmul double 2.000000e+00, %155
  %157 = fdiv double %151, %156
  store double %157, double* %7, align 8
  store double %157, double* %6, align 8
  %158 = load double, double* %6, align 8
  %159 = call i32 (i8*, ...) @printf(i8* getelementptr inbounds ([13 x i8], [13 x i8]* @.str.3, i64 0, i64 0), double %158)
  br label %205

160:                                              ; preds = %124
  %161 = load i32, i32* %2, align 4
  %162 = sext i32 %161 to i64
  %163 = getelementptr inbounds [100 x double], [100 x double]* %4, i64 0, i64 %162
  %164 = load double, double* %163, align 8
  %165 = fneg double %164
  %166 = load i32, i32* %2, align 4
  %167 = sext i32 %166 to i64
  %168 = getelementptr inbounds [100 x double], [100 x double]* %3, i64 0, i64 %167
  %169 = load double, double* %168, align 8
  %170 = fmul double 2.000000e+00, %169
  %171 = fdiv double %165, %170
  store double %171, double* %6, align 8
  %172 = load i32, i32* %2, align 4
  %173 = sext i32 %172 to i64
  %174 = getelementptr inbounds [100 x double], [100 x double]* %4, i64 0, i64 %173
  %175 = load double, double* %174, align 8
  %176 = fneg double %175
  %177 = load i32, i32* %2, align 4
  %178 = sext i32 %177 to i64
  %179 = getelementptr inbounds [100 x double], [100 x double]* %4, i64 0, i64 %178
  %180 = load double, double* %179, align 8
  %181 = fmul double %176, %180
  %182 = load i32, i32* %2, align 4
  %183 = sext i32 %182 to i64
  %184 = getelementptr inbounds [100 x double], [100 x double]* %3, i64 0, i64 %183
  %185 = load double, double* %184, align 8
  %186 = fmul double 4.000000e+00, %185
  %187 = load i32, i32* %2, align 4
  %188 = sext i32 %187 to i64
  %189 = getelementptr inbounds [100 x double], [100 x double]* %5, i64 0, i64 %188
  %190 = load double, double* %189, align 8
  %191 = fmul double %186, %190
  %192 = fadd double %181, %191
  %193 = call double @sqrt(double %192) #3
  %194 = load i32, i32* %2, align 4
  %195 = sext i32 %194 to i64
  %196 = getelementptr inbounds [100 x double], [100 x double]* %3, i64 0, i64 %195
  %197 = load double, double* %196, align 8
  %198 = fmul double 2.000000e+00, %197
  %199 = fdiv double %193, %198
  store double %199, double* %7, align 8
  %200 = load double, double* %6, align 8
  %201 = load double, double* %7, align 8
  %202 = load double, double* %6, align 8
  %203 = load double, double* %7, align 8
  %204 = call i32 (i8*, ...) @printf(i8* getelementptr inbounds ([33 x i8], [33 x i8]* @.str.4, i64 0, i64 0), double %200, double %201, double %202, double %203)
  br label %205

205:                                              ; preds = %160, %146
  br label %206

206:                                              ; preds = %205, %54
  br label %207

207:                                              ; preds = %206
  %208 = load i32, i32* %2, align 4
  %209 = add nsw i32 %208, 1
  store i32 %209, i32* %2, align 4
  br label %28

210:                                              ; preds = %28
  ret void
}

declare dso_local i32 @__isoc99_scanf(i8*, ...) #1

; Function Attrs: nounwind
declare dso_local double @sqrt(double) #2

declare dso_local i32 @printf(i8*, ...) #1


!llvm.module.flags = !{!0}
!llvm.ident = !{!1}

!0 = !{i32 1, !"wchar_size", i32 4}
!1 = !{!"clang version 10.0.0-4ubuntu1 "}
